; Function Attrs: mustprogress uwtable
define hidden void @_ZN5array6solver21set_prop_upward_storeEPN3euf5enodeE(ptr noundef nonnull align 8 dereferenceable(536) %0, ptr noundef readonly captures(none) %1) local_unnamed_addr #3 align 2 {
  %3 = getelementptr inbounds nuw i8, ptr %0, i64 112
  %4 = load ptr, ptr %1, align 8, !tbaa !187
  %5 = load i32, ptr %3, align 8, !tbaa !201
  %6 = getelementptr inbounds nuw i8, ptr %4, i64 4
  %7 = load i32, ptr %6, align 4
  %8 = and i32 %7, 65535
  %9 = icmp eq i32 %8, 0
  br i1 %9, label %10, label %_ZNK17array_recognizers8is_storeEP4expr.exit.thread

10:                                               ; preds = %2
  %11 = getelementptr inbounds nuw i8, ptr %4, i64 16
  %12 = load ptr, ptr %11, align 8, !tbaa !374
  %13 = getelementptr inbounds nuw i8, ptr %12, i64 24
  %14 = load ptr, ptr %13, align 8, !tbaa !198
  %.not.i.i.i.i = icmp eq ptr %14, null
  br i1 %.not.i.i.i.i, label %_ZNK17array_recognizers8is_storeEP4expr.exit.thread, label %_ZNK17array_recognizers8is_storeEP4expr.exit

_ZNK17array_recognizers8is_storeEP4expr.exit:     ; preds = %10
  %15 = load i32, ptr %14, align 8, !tbaa !202
  %16 = icmp eq i32 %15, %5
  %17 = getelementptr inbounds nuw i8, ptr %14, i64 4
  %18 = load i32, ptr %17, align 4
  %19 = icmp eq i32 %18, 0
  %20 = select i1 %16, i1 %19, i1 false
  br i1 %20, label %21, label %_ZNK17array_recognizers8is_storeEP4expr.exit.thread

21:                                               ; preds = %_ZNK17array_recognizers8is_storeEP4expr.exit
  %22 = getelementptr inbounds nuw i8, ptr %1, i64 176
  %23 = load ptr, ptr %22, align 8, !tbaa !174
  %24 = getelementptr inbounds nuw i8, ptr %0, i64 12
  %25 = load i32, ptr %24, align 4, !tbaa !172
  %26 = getelementptr inbounds nuw i8, ptr %23, i64 88
  %27 = load i32, ptr %26, align 8
  %28 = icmp ugt i32 %27, -257
  br i1 %28, label %_ZNK3euf5enode10get_th_varEi.exit, label %.preheader.i.i

.preheader.i.i:                                   ; preds = %21, %35
  %.0.i.i = phi ptr [ %37, %35 ], [ %26, %21 ]
  %29 = load i32, ptr %.0.i.i, align 8
  %30 = shl i32 %29, 24
  %31 = ashr exact i32 %30, 24
  %32 = icmp eq i32 %25, %31
  br i1 %32, label %33, label %35

33:                                               ; preds = %.preheader.i.i
  %34 = ashr i32 %29, 8
  br label %_ZNK3euf5enode10get_th_varEi.exit

35:                                               ; preds = %.preheader.i.i
  %36 = getelementptr inbounds nuw i8, ptr %.0.i.i, i64 8
  %37 = load ptr, ptr %36, align 8, !tbaa !377
  %.not.i.i = icmp eq ptr %37, null
  br i1 %.not.i.i, label %_ZNK3euf5enode10get_th_varEi.exit, label %.preheader.i.i, !llvm.loop !378

_ZNK3euf5enode10get_th_varEi.exit:                ; preds = %35, %21, %33
  %.06.i.i = phi i32 [ -1, %21 ], [ %34, %33 ], [ -1, %35 ]
  tail call void @_ZN5array6solver15set_prop_upwardEi(ptr noundef nonnull align 8 dereferenceable(536) %0, i32 noundef %.06.i.i)
  br label %_ZNK17array_recognizers8is_storeEP4expr.exit.thread

_ZNK17array_recognizers8is_storeEP4expr.exit.thread: ; preds = %10, %2, %_ZNK3euf5enode10get_th_varEi.exit, %_ZNK17array_recognizers8is_storeEP4expr.exit
  ret void
}